target datalayout = "e-m:e-p270:32:32-p271:32:32-p272:64:64-i64:64-i128:128-f80:128-n8:16:32:64-S128"
target triple = "x86_64-pc-linux-gnu"

%struct._packet_info = type { ptr, ptr, i32, i32, %struct.nstime_t, %struct.nstime_t, %struct.nstime_t, i8, ptr, ptr, ptr, ptr, %struct._address, %struct._address, %struct._address, %struct._address, %struct._address, %struct._address, i32, ptr, i8, [3 x i8], %struct.anon, i32, i32, i32, i32, ptr, i8, ptr, ptr, i16, i16, i32, i32, i16, i32, i32, ptr, ptr, ptr, i8, i8, i16, i16, i16, i32, i16, i16, ptr, ptr, ptr, ptr, ptr, i32, i32 }
%struct.nstime_t = type { i64, i32 }
%struct._address = type { i32, i32, ptr, ptr }
%struct.anon = type { i8, [3 x i8] }

@hf_zbncp_data_hl_status_cat = internal global i32 0, align 4
@hf_zbncp_data_hl_status = internal global i32 0, align 4
@hf_zbncp_data_hl_status_generic = internal global i32 0, align 4
@hf_zbncp_data_hl_status_mac = internal global i32 0, align 4
@hf_zbncp_data_hl_status_nwk = internal global i32 0, align 4
@hf_zbncp_data_hl_status_cbke = internal global i32 0, align 4
@.str.1249 = private unnamed_addr constant [13 x i8] c", Status: %s\00", align 1
@.str.1250 = private unnamed_addr constant [15 x i8] c"Unknown Status\00", align 1
@.str.1251 = private unnamed_addr constant [15 x i8] c", Status: 0x%x\00", align 1

; Function Attrs: null_pointer_is_valid sspstrong uwtable
define internal i32 @dissect_zbncp_status(ptr noundef %0, ptr noundef %1, ptr noundef %2, i32 noundef %3) #0 {
  %5 = alloca ptr, align 8
  %6 = alloca ptr, align 8
  %7 = alloca ptr, align 8
  %8 = alloca i32, align 4
  %9 = alloca i32, align 4
  %10 = alloca i32, align 4
  store ptr %0, ptr %5, align 8
  store ptr %1, ptr %6, align 8
  store ptr %2, ptr %7, align 8
  store i32 %3, ptr %8, align 4
  call void @llvm.lifetime.start.p0(i64 4, ptr %9) #8
  %11 = load ptr, ptr %5, align 8
  %12 = load i32, ptr %8, align 4
  %13 = call zeroext i8 @tvb_get_uint8(ptr noundef %11, i32 noundef %12)
  %14 = zext i8 %13 to i32
  store i32 %14, ptr %9, align 4
  call void @llvm.lifetime.start.p0(i64 4, ptr %10) #8
  %15 = load ptr, ptr %7, align 8
  %16 = load i32, ptr @hf_zbncp_data_hl_status_cat, align 4
  %17 = load ptr, ptr %5, align 8
  %18 = load i32, ptr %8, align 4
  %19 = call ptr @proto_tree_add_item(ptr noundef %15, i32 noundef %16, ptr noundef %17, i32 noundef %18, i32 noundef 1, i32 noundef 0)
  %20 = load i32, ptr %8, align 4
  %21 = add i32 %20, 1
  store i32 %21, ptr %8, align 4
  %22 = load ptr, ptr %5, align 8
  %23 = load i32, ptr %8, align 4
  %24 = call zeroext i8 @tvb_get_uint8(ptr noundef %22, i32 noundef %23)
  %25 = zext i8 %24 to i32
  store i32 %25, ptr %10, align 4
  %26 = load i32, ptr %9, align 4
  switch i32 %26, label %76 [
    i32 0, label %27
    i32 2, label %38
    i32 3, label %49
    i32 4, label %60
    i32 6, label %65
  ]

27:                                               ; preds = %4
  %28 = load ptr, ptr %7, align 8
  %29 = load i32, ptr @hf_zbncp_data_hl_status_generic, align 4
  %30 = load ptr, ptr %5, align 8
  %31 = load i32, ptr %8, align 4
  %32 = call ptr @proto_tree_add_item(ptr noundef %28, i32 noundef %29, ptr noundef %30, i32 noundef %31, i32 noundef 1, i32 noundef 0)
  %33 = load ptr, ptr %6, align 8
  %34 = getelementptr inbounds nuw %struct._packet_info, ptr %33, i32 0, i32 1
  %35 = load ptr, ptr %34, align 8
  %36 = load i32, ptr %10, align 4
  %37 = call ptr @val_to_str_const(i32 noundef %36, ptr noundef @zbncp_hl_status_generic, ptr noundef @.str.1250)
  call void (ptr, i32, ptr, ...) @col_append_fstr(ptr noundef %35, i32 noundef 25, ptr noundef @.str.1249, ptr noundef %37)
  br label %86

38:                                               ; preds = %4
  %39 = load ptr, ptr %7, align 8
  %40 = load i32, ptr @hf_zbncp_data_hl_status_mac, align 4
  %41 = load ptr, ptr %5, align 8
  %42 = load i32, ptr %8, align 4
  %43 = call ptr @proto_tree_add_item(ptr noundef %39, i32 noundef %40, ptr noundef %41, i32 noundef %42, i32 noundef 1, i32 noundef 0)
  %44 = load ptr, ptr %6, align 8
  %45 = getelementptr inbounds nuw %struct._packet_info, ptr %44, i32 0, i32 1
  %46 = load ptr, ptr %45, align 8
  %47 = load i32, ptr %10, align 4
  %48 = call ptr @val_to_str_const(i32 noundef %47, ptr noundef @zb_mac_state, ptr noundef @.str.1250)
  call void (ptr, i32, ptr, ...) @col_append_fstr(ptr noundef %46, i32 noundef 25, ptr noundef @.str.1249, ptr noundef %48)
  br label %86

49:                                               ; preds = %4
  %50 = load ptr, ptr %7, align 8
  %51 = load i32, ptr @hf_zbncp_data_hl_status_nwk, align 4
  %52 = load ptr, ptr %5, align 8
  %53 = load i32, ptr %8, align 4
  %54 = call ptr @proto_tree_add_item(ptr noundef %50, i32 noundef %51, ptr noundef %52, i32 noundef %53, i32 noundef 1, i32 noundef 0)
  %55 = load ptr, ptr %6, align 8
  %56 = getelementptr inbounds nuw %struct._packet_info, ptr %55, i32 0, i32 1
  %57 = load ptr, ptr %56, align 8
  %58 = load i32, ptr %10, align 4
  %59 = call ptr @val_to_str_const(i32 noundef %58, ptr noundef @zb_nwk_state, ptr noundef @.str.1250)
  call void (ptr, i32, ptr, ...) @col_append_fstr(ptr noundef %57, i32 noundef 25, ptr noundef @.str.1249, ptr noundef %59)
  br label %86

60:                                               ; preds = %4
  %61 = load ptr, ptr %5, align 8
  %62 = load ptr, ptr %6, align 8
  %63 = load ptr, ptr %7, align 8
  %64 = load i32, ptr %8, align 4
  call void @dissect_zbee_aps_status_code(ptr noundef %61, ptr noundef %62, ptr noundef %63, i32 noundef %64)
  br label %86

65:                                               ; preds = %4
  %66 = load ptr, ptr %7, align 8
  %67 = load i32, ptr @hf_zbncp_data_hl_status_cbke, align 4
  %68 = load ptr, ptr %5, align 8
  %69 = load i32, ptr %8, align 4
  %70 = call ptr @proto_tree_add_item(ptr noundef %66, i32 noundef %67, ptr noundef %68, i32 noundef %69, i32 noundef 1, i32 noundef 0)
  %71 = load ptr, ptr %6, align 8
  %72 = getelementptr inbounds nuw %struct._packet_info, ptr %71, i32 0, i32 1
  %73 = load ptr, ptr %72, align 8
  %74 = load i32, ptr %10, align 4
  %75 = call ptr @val_to_str_const(i32 noundef %74, ptr noundef @zb_cbke_state, ptr noundef @.str.1250)
  call void (ptr, i32, ptr, ...) @col_append_fstr(ptr noundef %73, i32 noundef 25, ptr noundef @.str.1249, ptr noundef %75)
  br label %86

76:                                               ; preds = %4
  %77 = load ptr, ptr %7, align 8
  %78 = load i32, ptr @hf_zbncp_data_hl_status, align 4
  %79 = load ptr, ptr %5, align 8
  %80 = load i32, ptr %8, align 4
  %81 = call ptr @proto_tree_add_item(ptr noundef %77, i32 noundef %78, ptr noundef %79, i32 noundef %80, i32 noundef 1, i32 noundef 0)
  %82 = load ptr, ptr %6, align 8
  %83 = getelementptr inbounds nuw %struct._packet_info, ptr %82, i32 0, i32 1
  %84 = load ptr, ptr %83, align 8
  %85 = load i32, ptr %10, align 4
  call void (ptr, i32, ptr, ...) @col_append_fstr(ptr noundef %84, i32 noundef 25, ptr noundef @.str.1251, i32 noundef %85)
  br label %86

86:                                               ; preds = %76, %65, %60, %49, %38, %27
  %87 = load i32, ptr %8, align 4
  %88 = add i32 %87, 1
  store i32 %88, ptr %8, align 4
  %89 = load i32, ptr %8, align 4
  call void @llvm.lifetime.end.p0(i64 4, ptr %10) #8
  call void @llvm.lifetime.end.p0(i64 4, ptr %9) #8
  ret i32 %89
}