; Function Attrs: null_pointer_is_valid sspstrong uwtable
define internal fastcc noundef i32 @dissect_zbncp_status(ptr noundef %0, ptr noundef %1, ptr noundef %2, i32 noundef %3) unnamed_addr #0 {
  %5 = tail call zeroext i8 @tvb_get_uint8(ptr noundef %0, i32 noundef %3)
  %6 = load i32, ptr @hf_zbncp_data_hl_status_cat, align 4
  %7 = tail call ptr @proto_tree_add_item(ptr noundef %2, i32 noundef %6, ptr noundef %0, i32 noundef %3, i32 noundef 1, i32 noundef 0)
  %8 = add i32 %3, 1
  %9 = tail call zeroext i8 @tvb_get_uint8(ptr noundef %0, i32 noundef %8)
  %10 = zext i8 %9 to i32
  switch i8 %5, label %36 [
    i8 0, label %11
    i8 2, label %17
    i8 3, label %23
    i8 4, label %29
    i8 6, label %30
  ]

11:                                               ; preds = %4
  %12 = load i32, ptr @hf_zbncp_data_hl_status_generic, align 4
  %13 = tail call ptr @proto_tree_add_item(ptr noundef %2, i32 noundef %12, ptr noundef %0, i32 noundef %8, i32 noundef 1, i32 noundef 0)
  %14 = getelementptr inbounds nuw i8, ptr %1, i64 8
  %15 = load ptr, ptr %14, align 8
  %16 = tail call ptr @val_to_str_const(i32 noundef %10, ptr noundef nonnull @zbncp_hl_status_generic, ptr noundef nonnull @.str.1250)
  tail call void (ptr, i32, ptr, ...) @col_append_fstr(ptr noundef %15, i32 noundef 25, ptr noundef nonnull @.str.1249, ptr noundef %16)
  br label %41

17:                                               ; preds = %4
  %18 = load i32, ptr @hf_zbncp_data_hl_status_mac, align 4
  %19 = tail call ptr @proto_tree_add_item(ptr noundef %2, i32 noundef %18, ptr noundef %0, i32 noundef %8, i32 noundef 1, i32 noundef 0)
  %20 = getelementptr inbounds nuw i8, ptr %1, i64 8
  %21 = load ptr, ptr %20, align 8
  %22 = tail call ptr @val_to_str_const(i32 noundef %10, ptr noundef nonnull @zb_mac_state, ptr noundef nonnull @.str.1250)
  tail call void (ptr, i32, ptr, ...) @col_append_fstr(ptr noundef %21, i32 noundef 25, ptr noundef nonnull @.str.1249, ptr noundef %22)
  br label %41

23:                                               ; preds = %4
  %24 = load i32, ptr @hf_zbncp_data_hl_status_nwk, align 4
  %25 = tail call ptr @proto_tree_add_item(ptr noundef %2, i32 noundef %24, ptr noundef %0, i32 noundef %8, i32 noundef 1, i32 noundef 0)
  %26 = getelementptr inbounds nuw i8, ptr %1, i64 8
  %27 = load ptr, ptr %26, align 8
  %28 = tail call ptr @val_to_str_const(i32 noundef %10, ptr noundef nonnull @zb_nwk_state, ptr noundef nonnull @.str.1250)
  tail call void (ptr, i32, ptr, ...) @col_append_fstr(ptr noundef %27, i32 noundef 25, ptr noundef nonnull @.str.1249, ptr noundef %28)
  br label %41

29:                                               ; preds = %4
  tail call void @dissect_zbee_aps_status_code(ptr noundef %0, ptr noundef %1, ptr noundef %2, i32 noundef %8)
  br label %41

30:                                               ; preds = %4
  %31 = load i32, ptr @hf_zbncp_data_hl_status_cbke, align 4
  %32 = tail call ptr @proto_tree_add_item(ptr noundef %2, i32 noundef %31, ptr noundef %0, i32 noundef %8, i32 noundef 1, i32 noundef 0)
  %33 = getelementptr inbounds nuw i8, ptr %1, i64 8
  %34 = load ptr, ptr %33, align 8
  %35 = tail call ptr @val_to_str_const(i32 noundef %10, ptr noundef nonnull @zb_cbke_state, ptr noundef nonnull @.str.1250)
  tail call void (ptr, i32, ptr, ...) @col_append_fstr(ptr noundef %34, i32 noundef 25, ptr noundef nonnull @.str.1249, ptr noundef %35)
  br label %41

36:                                               ; preds = %4
  %37 = load i32, ptr @hf_zbncp_data_hl_status, align 4
  %38 = tail call ptr @proto_tree_add_item(ptr noundef %2, i32 noundef %37, ptr noundef %0, i32 noundef %8, i32 noundef 1, i32 noundef 0)
  %39 = getelementptr inbounds nuw i8, ptr %1, i64 8
  %40 = load ptr, ptr %39, align 8
  tail call void (ptr, i32, ptr, ...) @col_append_fstr(ptr noundef %40, i32 noundef 25, ptr noundef nonnull @.str.1251, i32 noundef %10)
  br label %41

41:                                               ; preds = %36, %30, %29, %23, %17, %11
  %42 = add i32 %3, 2
  ret i32 %42
}